; Function Attrs: mustprogress nounwind uwtable
define dso_local void @_ZN4llvm13ImmutablePassD2Ev(ptr noundef nonnull align 8 captures(none) dereferenceable(28) initializes((0, 8)) %0) unnamed_addr #0 align 2 {
  store ptr getelementptr inbounds nuw inrange(-16, 136) (i8, ptr @_ZTVN4llvm4PassE, i64 16), ptr %0, align 8
  %2 = getelementptr inbounds nuw i8, ptr %0, i64 8
  %3 = load ptr, ptr %2, align 8
  %4 = icmp eq ptr %3, null
  br i1 %4, label %_ZN4llvm10ModulePassD2Ev.exit, label %5

5:                                                ; preds = %1
  %6 = load ptr, ptr %3, align 8
  %.not.i.i.i.i.i.i = icmp eq ptr %6, null
  br i1 %.not.i.i.i.i.i.i, label %_ZN4llvm16AnalysisResolverD2Ev.exit.i.i, label %7

7:                                                ; preds = %5
  %8 = getelementptr inbounds nuw i8, ptr %3, i64 16
  %9 = load ptr, ptr %8, align 8
  %10 = ptrtoint ptr %9 to i64
  %11 = ptrtoint ptr %6 to i64
  %12 = sub i64 %10, %11
  tail call void @_ZdlPvm(ptr noundef nonnull %6, i64 noundef %12) #15
  br label %_ZN4llvm16AnalysisResolverD2Ev.exit.i.i

_ZN4llvm16AnalysisResolverD2Ev.exit.i.i:          ; preds = %7, %5
  tail call void @_ZdlPvm(ptr noundef nonnull %3, i64 noundef 32) #15
  br label %_ZN4llvm10ModulePassD2Ev.exit

_ZN4llvm10ModulePassD2Ev.exit:                    ; preds = %1, %_ZN4llvm16AnalysisResolverD2Ev.exit.i.i
  ret void
}